Certificate:
    Data:
        Version: 3 (0x2)
        Serial Number:
            ab:d7:fe:70:cf:2b:35:ad
        Signature Algorithm: sha1WithRSAEncryption
        Issuer: C=AT, ST=Vienna, L=Vienna, O=University of Vienna, OU=Faculty of Computer Science, CN=MIDP2
        Validity
            Not Before: Sep 22 20:44:32 2008 GMT
            Not After : Sep 20 20:44:32 2018 GMT
        Subject: C=AT, ST=Vienna, L=Vienna, O=University of Vienna, OU=Faculty of Computer Science, CN=MIDP2
        Subject Public Key Info:
            Public Key Algorithm: rsaEncryption
            RSA Public Key: (4096 bit)
                Modulus (4096 bit):
                    00:f2:b6:e8:05:a6:e7:45:1a:96:22:be:04:a7:ce:
                    9a:69:85:81:82:01:b9:f9:6f:bc:13:a1:5b:0c:c9:
                    1a:00:d6:06:25:9c:75:49:b4:df:0e:0c:b1:77:3b:
                    99:2a:ad:0f:08:d9:34:06:f1:20:98:f9:b1:c2:2a:
                    70:5a:94:56:64:8f:0c:83:8f:1f:1b:04:31:4a:3d:
                    e1:d0:4c:6e:74:0b:3e:2d:a0:42:97:09:82:a5:0f:
                    0e:e5:6d:54:8f:15:d9:1b:12:02:11:c0:93:fe:b4:
                    7f:17:b9:aa:11:c6:96:f2:3e:92:a2:33:35:f5:52:
                    d0:0b:0d:38:17:03:cb:ad:da:7c:e7:3a:18:8c:d0:
                    20:14:85:c6:14:12:95:b9:85:3d:41:4a:bb:3a:35:
                    79:11:87:d8:52:95:38:58:3c:7c:1b:b7:4d:6f:4f:
                    8a:da:4d:ab:08:3a:03:66:ec:69:e6:8c:47:71:6f:
                    93:31:1c:51:8e:73:45:ee:12:d7:bc:c1:80:92:46:
                    aa:ad:07:d6:28:7c:60:e5:5c:73:9a:f5:3e:11:26:
                    79:38:bb:68:7e:94:1a:e7:e2:4c:10:a5:cc:ed:3b:
                    3c:9c:cd:46:8b:d6:1f:5c:c9:ba:ad:e0:2e:3e:fa:
                    bf:82:08:dd:72:eb:bd:e2:8e:28:69:93:22:65:4a:
                    27:47:c2:47:0b:0a:1d:86:81:dd:a6:7c:97:f3:16:
                    40:17:4c:e4:13:b1:28:41:95:25:85:c6:7a:f3:57:
                    b1:96:64:f6:9e:cc:c8:2c:e9:30:57:e6:32:1b:6d:
                    5d:c4:1f:1c:83:d8:f4:96:9e:f9:f4:c0:07:1c:a3:
                    a3:05:f0:93:df:9e:54:3c:65:24:80:38:76:0f:84:
                    7b:80:9e:4b:25:dc:4d:50:27:f4:ad:3a:5b:22:45:
                    c6:a3:df:40:ae:5d:84:1f:97:56:37:0f:ec:b3:03:
                    32:ee:7d:2f:11:6a:5b:c5:36:42:ba:ef:e8:17:3a:
                    02:bf:a4:e2:ff:50:36:6d:e6:29:bf:79:83:10:ea:
                    09:19:92:15:72:34:d1:d9:d0:63:89:2c:74:27:14:
                    8a:46:69:3b:7d:04:0c:2e:dd:e3:a8:81:58:2c:64:
                    c1:61:cb:d0:0b:2a:ea:e4:d9:ce:1c:73:a8:c6:e0:
                    ea:0e:ae:04:f4:1d:39:8c:57:3a:b0:44:bf:b7:9a:
                    a7:39:b4:2b:38:a3:1e:7c:29:72:fa:a8:a5:65:00:
                    52:ae:6e:27:17:bf:dd:b0:06:4d:0e:11:3b:86:6a:
                    7d:a6:89:d8:8c:ce:81:47:01:97:38:e1:26:56:65:
                    28:97:58:d8:19:68:89:c9:71:c1:98:52:a2:c5:79:
                    bb:ef:55
                Exponent: 65537 (0x10001)
        X509v3 extensions:
            X509v3 Subject Key Identifier: 
                EE:F6:CA:2D:F1:BB:75:12:AE:7A:CF:BE:47:6F:B8:34:8D:B2:F1:13
            X509v3 Authority Key Identifier: 
                keyid:EE:F6:CA:2D:F1:BB:75:12:AE:7A:CF:BE:47:6F:B8:34:8D:B2:F1:13
                DirName:/C=AT/ST=Vienna/L=Vienna/O=University of Vienna/OU=Faculty of Computer Science/CN=MIDP2
                serial:AB:D7:FE:70:CF:2B:35:AD

            X509v3 Basic Constraints: 
                CA:TRUE
    Signature Algorithm: sha1WithRSAEncryption
        2a:b9:9a:76:fa:c8:65:a1:1c:fb:4b:2b:ac:66:78:a7:25:70:
        ae:cd:07:e7:ba:9a:d7:e1:81:26:3d:d3:bd:13:23:24:70:19:
        99:f6:f3:f1:82:61:33:9e:1d:67:de:83:cd:58:e9:b6:8b:08:
        ba:38:88:5a:fb:5a:a0:f2:63:e1:cd:75:2b:30:34:e4:d0:9e:
        b2:d1:cf:dc:a5:5a:b1:d9:ba:f2:6b:4f:1f:37:7f:31:a7:44:
        f6:51:62:fe:ae:47:ba:85:7c:92:09:d4:17:5d:e7:e9:de:d5:
        52:d4:94:2c:4b:4e:5a:a8:6b:21:7c:19:ec:bf:3e:8f:5a:3c:
        72:f1:9b:c8:53:4b:6e:8e:a7:e3:6e:7e:9a:4e:94:2c:8a:84:
        8d:dd:70:85:ea:0f:ed:8d:28:af:73:09:6c:c2:fc:f7:c2:94:
        7f:82:69:1f:9d:69:35:ef:27:87:c6:21:57:18:fe:d0:ca:90:
        ae:84:70:35:ff:58:0f:d7:97:3f:f8:8f:3c:80:79:2c:c6:44:
        ca:dc:4a:a9:51:99:4a:84:8d:77:b2:f1:d7:2c:67:33:b3:d9:
        ed:67:99:e0:1c:3c:54:d2:6b:b5:a4:7c:c0:d4:5e:92:a9:b4:
        aa:d0:11:64:c5:d7:bf:f6:2d:79:a8:86:d9:ea:e5:fc:61:9f:
        57:93:e3:c8:c6:93:c0:26:58:4e:cb:29:97:51:4b:57:ee:82:
        26:1f:a0:db:b2:04:7a:af:cb:04:23:32:2b:b7:7d:07:f5:20:
        a2:c7:ae:22:8a:27:c8:a3:4a:cf:e2:5f:cc:04:2d:5d:02:d3:
        0b:50:30:de:94:a5:53:8a:a4:6b:41:74:fa:09:ad:b3:8f:58:
        48:99:fa:c9:97:99:bd:c6:77:e0:42:7f:e1:65:57:21:6b:f0:
        a3:7f:39:53:35:57:d5:c7:87:14:4c:b8:f9:a3:4b:a7:d7:f2:
        00:4f:46:c7:9f:24:fe:eb:61:27:83:ea:55:cd:47:71:ad:c5:
        66:2e:1f:03:17:d0:d0:93:85:b8:f3:0e:03:9a:76:62:62:93:
        92:5d:fb:05:82:e4:0b:a4:4d:78:1e:d8:fb:8c:7a:16:a8:87:
        34:0f:d1:28:3b:c0:d5:11:8d:cb:84:80:8b:03:e0:a7:e6:7e:
        4d:5a:2f:4f:d3:b0:6d:18:cd:cd:82:bc:32:2b:06:f6:27:ba:
        35:31:b9:62:94:13:d1:f4:ff:43:3a:42:49:95:e5:00:95:e8:
        c9:2b:db:eb:df:3a:bd:10:d5:d4:1a:0b:74:df:dd:e5:bc:82:
        60:77:75:78:71:53:c3:81:c3:5f:b1:48:fc:18:9f:fd:5b:ec:
        dd:be:b4:93:bf:58:10:18
-----BEGIN CERTIFICATE-----
MIIGejCCBGKgAwIBAgIJAKvX/nDPKzWtMA0GCSqGSIb3DQEBBQUAMIGEMQswCQYD
VQQGEwJBVDEPMA0GA1UECBMGVmllbm5hMQ8wDQYDVQQHEwZWaWVubmExHTAbBgNV
BAoTFFVuaXZlcnNpdHkgb2YgVmllbm5hMSQwIgYDVQQLExtGYWN1bHR5IG9mIENv
bXB1dGVyIFNjaWVuY2UxDjAMBgNVBAMTBU1JRFAyMB4XDTA4MDkyMjIwNDQzMloX
DTE4MDkyMDIwNDQzMlowgYQxCzAJBgNVBAYTAkFUMQ8wDQYDVQQIEwZWaWVubmEx
DzANBgNVBAcTBlZpZW5uYTEdMBsGA1UEChMUVW5pdmVyc2l0eSBvZiBWaWVubmEx
JDAiBgNVBAsTG0ZhY3VsdHkgb2YgQ29tcHV0ZXIgU2NpZW5jZTEOMAwGA1UEAxMF
TUlEUDIwggIiMA0GCSqGSIb3DQEBAQUAA4ICDwAwggIKAoICAQDytugFpudFGpYi
vgSnzppphYGCAbn5b7wToVsMyRoA1gYlnHVJtN8ODLF3O5kqrQ8I2TQG8SCY+bHC
KnBalFZkjwyDjx8bBDFKPeHQTG50Cz4toEKXCYKlDw7lbVSPFdkbEgIRwJP+tH8X
uaoRxpbyPpKiMzX1UtALDTgXA8ut2nznOhiM0CAUhcYUEpW5hT1BSrs6NXkRh9hS
lThYPHwbt01vT4raTasIOgNm7GnmjEdxb5MxHFGOc0XuEte8wYCSRqqtB9YofGDl
XHOa9T4RJnk4u2h+lBrn4kwQpcztOzyczUaL1h9cybqt4C4++r+CCN1y673ijihp
kyJlSidHwkcLCh2Ggd2mfJfzFkAXTOQTsShBlSWFxnrzV7GWZPaezMgs6TBX5jIb
bV3EHxyD2PSWnvn0wAcco6MF8JPfnlQ8ZSSAOHYPhHuAnksl3E1QJ/StOlsiRcaj
30CuXYQfl1Y3D+yzAzLufS8RalvFNkK67+gXOgK/pOL/UDZt5im/eYMQ6gkZkhVy
NNHZ0GOJLHQnFIpGaTt9BAwu3eOogVgsZMFhy9ALKurk2c4cc6jG4OoOrgT0HTmM
VzqwRL+3mqc5tCs4ox58KXL6qKVlAFKubicXv92wBk0OETuGan2midiMzoFHAZc4
4SZWZSiXWNgZaInJccGYUqLFebvvVQIDAQABo4HsMIHpMB0GA1UdDgQWBBTu9sot
8bt1Eq56z75Hb7g0jbLxEzCBuQYDVR0jBIGxMIGugBTu9sot8bt1Eq56z75Hb7g0
jbLxE6GBiqSBhzCBhDELMAkGA1UEBhMCQVQxDzANBgNVBAgTBlZpZW5uYTEPMA0G
A1UEBxMGVmllbm5hMR0wGwYDVQQKExRVbml2ZXJzaXR5IG9mIFZpZW5uYTEkMCIG
A1UECxMbRmFjdWx0eSBvZiBDb21wdXRlciBTY2llbmNlMQ4wDAYDVQQDEwVNSURQ
MoIJAKvX/nDPKzWtMAwGA1UdEwQFMAMBAf8wDQYJKoZIhvcNAQEFBQADggIBACq5
mnb6yGWhHPtLK6xmeKclcK7NB+e6mtfhgSY9070TIyRwGZn28/GCYTOeHWfeg81Y
6baLCLo4iFr7WqDyY+HNdSswNOTQnrLRz9ylWrHZuvJrTx83fzGnRPZRYv6uR7qF
fJIJ1Bdd5+ne1VLUlCxLTlqoayF8Gey/Po9aPHLxm8hTS26Op+NufppOlCyKhI3d
cIXqD+2NKK9zCWzC/PfClH+CaR+daTXvJ4fGIVcY/tDKkK6EcDX/WA/Xlz/4jzyA
eSzGRMrcSqlRmUqEjXey8dcsZzOz2e1nmeAcPFTSa7WkfMDUXpKptKrQEWTF17/2
LXmohtnq5fxhn1eT48jGk8AmWE7LKZdRS1fugiYfoNuyBHqvywQjMiu3fQf1IKLH
riKKJ8ijSs/iX8wELV0C0wtQMN6UpVOKpGtBdPoJrbOPWEiZ+smXmb3Gd+BCf+Fl
VyFr8KN/OVM1V9XHhxRMuPmjS6fX8gBPRsefJP7rYSeD6lXNR3GtxWYuHwMX0NCT
hbjzDgOadmJik5Jd+wWC5AukTXge2PuMehaohzQP0Sg7wNURjcuEgIsD4Kfmfk1a
L0/TsG0Yzc2CvDIrBvYnujUxuWKUE9H0/0M6QkmV5QCV6Mkr2+vfOr0Q1dQaC3Tf
3eW8gmB3dXhxU8OBw1+xSPwYn/1b7N2+tJO/WBAY
-----END CERTIFICATE-----
